libkdeconnect.so.1 kdeconnect #MINVER#
 _ZN12DevicesModel11deviceAddedERK7QString@Base 0.3
 _ZN12DevicesModel11qt_metacallEN11QMetaObject4CallEiPPv@Base 0.3
 _ZN12DevicesModel11qt_metacastEPKc@Base 0.3
 _ZN12DevicesModel11rowsChangedEv@Base 0.3
 _ZN12DevicesModel13deviceRemovedERK7QString@Base 0.3
 _ZN12DevicesModel16setDisplayFilterENS_11StatusFlagsE@Base 0.3
 _ZN12DevicesModel16setDisplayFilterEi@Base 0.3
 _ZN12DevicesModel16staticMetaObjectE@Base 0.3
 _ZN12DevicesModel17refreshDeviceListEv@Base 0.3
 _ZN12DevicesModel19deviceStatusChangedERK7QString@Base 0.3
 _ZN12DevicesModel9getDeviceERK11QModelIndex@Base 0.3
 _ZN12DevicesModelC1EP7QObject@Base 0.3
 _ZN12DevicesModelC2EP7QObject@Base 0.3
 _ZN12DevicesModelD0Ev@Base 0.3
 _ZN12DevicesModelD1Ev@Base 0.3
 _ZN12DevicesModelD2Ev@Base 0.3
 _ZN18NotificationsModel10dismissAllEv@Base 0.3
 _ZN18NotificationsModel11qt_metacallEN11QMetaObject4CallEiPPv@Base 0.3
 _ZN18NotificationsModel11qt_metacastEPKc@Base 0.3
 _ZN18NotificationsModel11rowsChangedEv@Base 0.3
 _ZN18NotificationsModel11setDeviceIdERK7QString@Base 0.3
 _ZN18NotificationsModel15deviceIdChangedERK7QString@Base 0.3
 _ZN18NotificationsModel15getNotificationERK11QModelIndex@Base 0.3
 _ZN18NotificationsModel15isAnyDimissableEv@Base 0.3
 _ZN18NotificationsModel16staticMetaObjectE@Base 0.3
 _ZN18NotificationsModel17notificationAddedERK7QString@Base 0.3
 _ZN18NotificationsModel19notificationRemovedERK7QString@Base 0.3
 _ZN18NotificationsModel21anyDismissableChangedEv@Base 0.3
 _ZN18NotificationsModel23refreshNotificationListEv@Base 0.3
 _ZN18NotificationsModel8deviceIdEv@Base 0.3
 _ZN18NotificationsModelC1EP7QObject@Base 0.3
 _ZN18NotificationsModelC2EP7QObject@Base 0.3
 _ZN18NotificationsModelD0Ev@Base 0.3
 _ZN18NotificationsModelD1Ev@Base 0.3
 _ZN18NotificationsModelD2Ev@Base 0.3
 _ZN19DaemonDbusInterface11qt_metacallEN11QMetaObject4CallEiPPv@Base 0.3
 _ZN19DaemonDbusInterface11qt_metacastEPKc@Base 0.3
 _ZN19DaemonDbusInterface16staticMetaObjectE@Base 0.3
 _ZN19DaemonDbusInterfaceC1EP7QObject@Base 0.3
 _ZN19DaemonDbusInterfaceC2EP7QObject@Base 0.3
 _ZN19DaemonDbusInterfaceD0Ev@Base 0.3
 _ZN19DaemonDbusInterfaceD1Ev@Base 0.3
 _ZN19DaemonDbusInterfaceD2Ev@Base 0.3
 _ZN19DeviceDbusInterface11qt_metacallEN11QMetaObject4CallEiPPv@Base 0.3
 _ZN19DeviceDbusInterface11qt_metacastEPKc@Base 0.3
 _ZN19DeviceDbusInterface16staticMetaObjectE@Base 0.3
 _ZN19DeviceDbusInterfaceC1ERK7QStringP7QObject@Base 0.3
 _ZN19DeviceDbusInterfaceC2ERK7QStringP7QObject@Base 0.3
 _ZN19DeviceDbusInterfaceD0Ev@Base 0.3
 _ZN19DeviceDbusInterfaceD1Ev@Base 0.3
 _ZN19DeviceDbusInterfaceD2Ev@Base 0.3
 _ZN25NotificationDbusInterface11qt_metacallEN11QMetaObject4CallEiPPv@Base 0.3
 _ZN25NotificationDbusInterface11qt_metacastEPKc@Base 0.3
 _ZN25NotificationDbusInterface16staticMetaObjectE@Base 0.3
 _ZN25NotificationDbusInterfaceC1ERK7QStringS2_P7QObject@Base 0.3
 _ZN25NotificationDbusInterfaceC2ERK7QStringS2_P7QObject@Base 0.3
 _ZN25NotificationDbusInterfaceD0Ev@Base 0.3
 _ZN25NotificationDbusInterfaceD1Ev@Base 0.3
 _ZN25NotificationDbusInterfaceD2Ev@Base 0.3
 _ZN32DeviceNotificationsDbusInterface11qt_metacallEN11QMetaObject4CallEiPPv@Base 0.3
 _ZN32DeviceNotificationsDbusInterface11qt_metacastEPKc@Base 0.3
 _ZN32DeviceNotificationsDbusInterface16staticMetaObjectE@Base 0.3
 _ZN32DeviceNotificationsDbusInterfaceC1ERK7QStringP7QObject@Base 0.3
 _ZN32DeviceNotificationsDbusInterfaceC2ERK7QStringP7QObject@Base 0.3
 _ZN32DeviceNotificationsDbusInterfaceD0Ev@Base 0.3
 _ZN32DeviceNotificationsDbusInterfaceD1Ev@Base 0.3
 _ZN32DeviceNotificationsDbusInterfaceD2Ev@Base 0.3
 _ZNK12DevicesModel10metaObjectEv@Base 0.3
 _ZNK12DevicesModel13displayFilterEv@Base 0.3
 _ZNK12DevicesModel4dataERK11QModelIndexi@Base 0.3
 _ZNK12DevicesModel8rowCountERK11QModelIndex@Base 0.3
 _ZNK18NotificationsModel10metaObjectEv@Base 0.3
 _ZNK18NotificationsModel4dataERK11QModelIndexi@Base 0.3
 _ZNK18NotificationsModel8rowCountERK11QModelIndex@Base 0.3
 _ZNK19DaemonDbusInterface10metaObjectEv@Base 0.3
 _ZNK19DeviceDbusInterface10metaObjectEv@Base 0.3
 _ZNK25NotificationDbusInterface10metaObjectEv@Base 0.3
 _ZNK32DeviceNotificationsDbusInterface10metaObjectEv@Base 0.3
 _ZTI12DevicesModel@Base 0.3
 _ZTI18NotificationsModel@Base 0.3
 _ZTI19DaemonDbusInterface@Base 0.3
 _ZTI19DeviceDbusInterface@Base 0.3
 _ZTI25NotificationDbusInterface@Base 0.3
 _ZTI32DeviceNotificationsDbusInterface@Base 0.3
 _ZTS12DevicesModel@Base 0.3
 _ZTS18NotificationsModel@Base 0.3
 _ZTS19DaemonDbusInterface@Base 0.3
 _ZTS19DeviceDbusInterface@Base 0.3
 _ZTS25NotificationDbusInterface@Base 0.3
 _ZTS32DeviceNotificationsDbusInterface@Base 0.3
 _ZTV12DevicesModel@Base 0.3
 _ZTV18NotificationsModel@Base 0.3
 _ZTV19DaemonDbusInterface@Base 0.3
 _ZTV19DeviceDbusInterface@Base 0.3
 _ZTV25NotificationDbusInterface@Base 0.3
 _ZTV32DeviceNotificationsDbusInterface@Base 0.3
